; Function Attrs: nounwind uwtable
define internal noundef i32 @php_output_stack_apply_list(ptr noundef readonly captures(none) %0, ptr noundef %1) #0 {
  %3 = load ptr, ptr %0, align 8, !tbaa !18
  %4 = load ptr, ptr %3, align 8, !tbaa !78
  %5 = getelementptr inbounds nuw i8, ptr %4, i64 4
  %6 = load i32, ptr %5, align 4, !tbaa !8
  %7 = and i32 %6, 64
  %.not.i = icmp eq i32 %7, 0
  br i1 %.not.i, label %8, label %zend_string_copy.exit

8:                                                ; preds = %2
  %9 = load i32, ptr %4, align 4, !tbaa !20
  %10 = add i32 %9, 1
  store i32 %10, ptr %4, align 4, !tbaa !20
  br label %zend_string_copy.exit

zend_string_copy.exit:                            ; preds = %2, %8
  %11 = tail call i32 @add_next_index_str(ptr noundef %1, ptr noundef nonnull %4) #22
  ret i32 0
}